target datalayout = "e-m:e-p270:32:32-p271:32:32-p272:64:64-i64:64-i128:128-f80:128-n8:16:32:64-S128"
target triple = "x86_64-pc-linux-gnu"

%"class.sat::literal" = type { i32 }
%class.trail = type { ptr }
%"class.euf::th_euf_solver" = type <{ %"class.euf::th_solver", ptr, %class.ptr_vector, %class.svector.3, i32, [4 x i8] }>
%"class.euf::th_solver" = type { %"class.sat::extension", %"class.euf::th_model_builder", %"class.euf::th_decompile", %"class.euf::th_internalizer", ptr }
%"class.sat::extension" = type { ptr, i8, i32, %class.symbol, ptr }
%class.symbol = type { ptr }
%"class.euf::th_model_builder" = type { ptr }
%"class.euf::th_decompile" = type { ptr }
%"class.euf::th_internalizer" = type { ptr, %class.ptr_vector, %class.svector.1 }
%class.svector.1 = type { %class.vector.2 }
%class.vector.2 = type { ptr }
%class.ptr_vector = type { %class.vector.0 }
%class.vector.0 = type { ptr }
%class.svector.3 = type { %class.vector.4 }
%class.vector.4 = type { ptr }
%class.svector.7 = type { %class.vector.8 }
%class.vector.8 = type { ptr }
%"class.euf::justification" = type { i32, %union.anon.60, %union.anon.61 }
%union.anon.60 = type { ptr }
%union.anon.61 = type { ptr }
%class.ptr_vector.9 = type { %class.vector.10 }
%class.vector.10 = type { ptr }
%class.arith_util = type { ptr, ptr }
%class.bv_util = type { %class.bv_recognizers, ptr, ptr }
%class.bv_recognizers = type { i32 }
%class.svector.29 = type { %class.vector.30 }
%class.vector.30 = type { ptr }
%class.svector.5 = type { %class.vector.6 }
%class.vector.6 = type { ptr }
%class.vector.11 = type { ptr }
%"class.bv::solver" = type { %"class.euf::th_euf_solver.base", %class.svector.5, i32, i32, %class.bv_util, %class.arith_util, %"struct.bv::solver::stats", %"class.bv::ackerman", %class.bit_blaster, %class.union_find, %class.vector.11, %class.svector.3, %class.vector.12, %class.ptr_vector.13, %class.map, %class.vector.17, %class.svector.5, %class.svector.18, %class.svector.3, i32, %"class.sat::literal", %class.ptr_vector, %class.obj_map, %class.obj_map.24, i8, [2 x %class.svector.29] }
%"class.euf::th_euf_solver.base" = type <{ %"class.euf::th_solver", ptr, %class.ptr_vector, %class.svector.3, i32 }>
%"struct.bv::solver::stats" = type { i32, i32, i32, i32, i32, i32, i32, i32 }
%"class.bv::ackerman" = type { ptr, %class.hashtable, ptr, ptr, i32, i32, i32, i32, %class.svector.7 }
%class.hashtable = type { %class.core_hashtable.base, [4 x i8] }
%class.core_hashtable.base = type <{ ptr, i32, i32, i32 }>
%class.bit_blaster = type { %class.bit_blaster_tpl, %class.bv_util, %class.bool_rewriter }
%class.bit_blaster_tpl = type { %class.bit_blaster_cfg, i64 }
%class.bit_blaster_cfg = type { ptr, ptr, ptr }
%class.bool_rewriter = type { ptr, i8, i8, i8, i8, i8, i8, i32, i8, i32, i32, i8, %class.ptr_vector.9, %class.ptr_vector.9, %class.svector.3, %class.svector.3 }
%class.union_find = type { ptr, ptr, %class.svector.3, %class.svector.3, %class.svector.3, %"class.union_find<bv::solver>::mk_var_trail" }
%"class.union_find<bv::solver>::mk_var_trail" = type { %class.trail, ptr }
%class.vector.12 = type { ptr }
%class.ptr_vector.13 = type { %class.vector.14 }
%class.vector.14 = type { ptr }
%class.map = type { %class.table2map }
%class.table2map = type { %class.core_hashtable.15 }
%class.core_hashtable.15 = type <{ [8 x i8], ptr, i32, i32, i32, [4 x i8] }>
%class.vector.17 = type { ptr }
%class.svector.18 = type { %class.vector.19 }
%class.vector.19 = type { ptr }
%class.obj_map = type { %class.core_hashtable.20 }
%class.core_hashtable.20 = type <{ ptr, i32, i32, i32, [4 x i8] }>
%class.obj_map.24 = type { %class.core_hashtable.25 }
%class.core_hashtable.25 = type <{ ptr, i32, i32, i32, [4 x i8] }>
%"class.euf::enode" = type { ptr, i8, i8, i8, i8, i8, i8, i8, i8, i8, i32, i32, i32, i32, i32, i32, %class.ptr_vector, ptr, ptr, ptr, ptr, %class.id_var_list, %"class.euf::justification", %"class.euf::justification", i32, i8, %class.approx_set, %class.approx_set, [0 x ptr] }
%class.id_var_list = type { i32, ptr }
%class.approx_set = type { %class.approx_set_tpl.214 }
%class.approx_set_tpl.214 = type { i64 }

; Function Attrs: mustprogress nounwind uwtable
define linkonce_odr hidden noundef ptr @_ZNK11id_var_listILin1ELin1EE8get_nextEv(ptr noundef nonnull align 8 dereferenceable(16) %0) #6 comdat align 2 {
  %2 = alloca ptr, align 8
  store ptr %0, ptr %2, align 8, !tbaa !506
  %3 = load ptr, ptr %2, align 8
  %4 = getelementptr inbounds nuw %class.id_var_list, ptr %3, i32 0, i32 1
  %5 = load ptr, ptr %4, align 8, !tbaa !508
  ret ptr %5
}

; Function Attrs: mustprogress nounwind uwtable
define linkonce_odr hidden noundef i32 @_ZNK11id_var_listILin1ELin1EE7get_varEv(ptr noundef nonnull align 8 dereferenceable(16) %0) #6 comdat align 2 {
  %2 = alloca ptr, align 8
  store ptr %0, ptr %2, align 8, !tbaa !506
  %3 = load ptr, ptr %2, align 8
  %4 = load i32, ptr %3, align 8
  %5 = ashr i32 %4, 8
  ret i32 %5
}

; Function Attrs: mustprogress nounwind uwtable
define linkonce_odr hidden noundef i32 @_ZNK11id_var_listILin1ELin1EE6get_idEv(ptr noundef nonnull align 8 dereferenceable(16) %0) #6 comdat align 2 {
  %2 = alloca ptr, align 8
  store ptr %0, ptr %2, align 8, !tbaa !506
  %3 = load ptr, ptr %2, align 8
  %4 = load i32, ptr %3, align 8
  %5 = shl i32 %4, 24
  %6 = ashr i32 %5, 24
  ret i32 %6
}

; Function Attrs: mustprogress uwtable
define linkonce_odr hidden noundef zeroext i1 @_ZNK11id_var_listILin1ELin1EE5emptyEv(ptr noundef nonnull align 8 dereferenceable(16) %0) #4 comdat align 2 {
  %2 = alloca ptr, align 8
  store ptr %0, ptr %2, align 8, !tbaa !506
  %3 = load ptr, ptr %2, align 8
  %4 = call noundef i32 @_ZNK11id_var_listILin1ELin1EE7get_varEv(ptr noundef nonnull align 8 dereferenceable(16) %3)
  %5 = icmp eq i32 %4, -1
  ret i1 %5
}

; Function Attrs: mustprogress uwtable
define linkonce_odr hidden noundef i32 @_ZNK11id_var_listILin1ELin1EE4findEi(ptr noundef nonnull align 8 dereferenceable(16) %0, i32 noundef %1) #4 comdat align 2 {
  %3 = alloca i32, align 4
  %4 = alloca ptr, align 8
  %5 = alloca i32, align 4
  %6 = alloca ptr, align 8
  %7 = alloca i32, align 4
  store ptr %0, ptr %4, align 8, !tbaa !506
  store i32 %1, ptr %5, align 4, !tbaa !57
  %8 = load ptr, ptr %4, align 8
  %9 = call noundef zeroext i1 @_ZNK11id_var_listILin1ELin1EE5emptyEv(ptr noundef nonnull align 8 dereferenceable(16) %8)
  br i1 %9, label %10, label %11

10:                                               ; preds = %2
  store i32 -1, ptr %3, align 4
  br label %28

11:                                               ; preds = %2
  call void @llvm.lifetime.start.p0(i64 8, ptr %6) #3
  store ptr %8, ptr %6, align 8, !tbaa !506
  br label %12

12:                                               ; preds = %23, %11
  %13 = load i32, ptr %5, align 4, !tbaa !57
  %14 = load ptr, ptr %6, align 8, !tbaa !506
  %15 = call noundef i32 @_ZNK11id_var_listILin1ELin1EE6get_idEv(ptr noundef nonnull align 8 dereferenceable(16) %14)
  %16 = icmp eq i32 %13, %15
  br i1 %16, label %17, label %20

17:                                               ; preds = %12
  %18 = load ptr, ptr %6, align 8, !tbaa !506
  %19 = call noundef i32 @_ZNK11id_var_listILin1ELin1EE7get_varEv(ptr noundef nonnull align 8 dereferenceable(16) %18)
  store i32 %19, ptr %3, align 4
  store i32 1, ptr %7, align 4
  br label %27

20:                                               ; preds = %12
  %21 = load ptr, ptr %6, align 8, !tbaa !506
  %22 = call noundef ptr @_ZNK11id_var_listILin1ELin1EE8get_nextEv(ptr noundef nonnull align 8 dereferenceable(16) %21)
  store ptr %22, ptr %6, align 8, !tbaa !506
  br label %23

23:                                               ; preds = %20
  %24 = load ptr, ptr %6, align 8, !tbaa !506
  %25 = icmp ne ptr %24, null
  br i1 %25, label %12, label %26, !llvm.loop !507

26:                                               ; preds = %23
  store i32 -1, ptr %3, align 4
  store i32 1, ptr %7, align 4
  br label %27

27:                                               ; preds = %26, %17
  call void @llvm.lifetime.end.p0(i64 8, ptr %6) #3
  br label %28

28:                                               ; preds = %27, %10
  %29 = load i32, ptr %3, align 4
  ret i32 %29
}

; Function Attrs: mustprogress uwtable
define linkonce_odr hidden noundef zeroext i1 @_ZNK14bv_recognizers5is_bvEPK4expr(ptr noundef nonnull align 4 dereferenceable(4) %0, ptr noundef %1) #4 comdat align 2 {
  %3 = alloca ptr, align 8
  %4 = alloca ptr, align 8
  store ptr %0, ptr %3, align 8, !tbaa !131
  store ptr %1, ptr %4, align 8, !tbaa !93
  %5 = load ptr, ptr %3, align 8
  %6 = load ptr, ptr %4, align 8, !tbaa !93
  %7 = call noundef ptr @_ZNK4expr8get_sortEv(ptr noundef nonnull align 4 dereferenceable(16) %6)
  %8 = call noundef zeroext i1 @_ZNK14bv_recognizers10is_bv_sortEPK4sort(ptr noundef nonnull align 4 dereferenceable(4) %5, ptr noundef %7)
  ret i1 %8
}

; Function Attrs: mustprogress nounwind uwtable
define linkonce_odr hidden noundef ptr @_ZNK3euf5enode8get_exprEv(ptr noundef nonnull align 8 dereferenceable(176) %0) #6 comdat align 2 {
  %2 = alloca ptr, align 8
  store ptr %0, ptr %2, align 8, !tbaa !56
  %3 = load ptr, ptr %2, align 8
  %4 = getelementptr inbounds nuw %"class.euf::enode", ptr %3, i32 0, i32 0
  %5 = load ptr, ptr %4, align 8, !tbaa !277
  ret ptr %5
}

; Function Attrs: mustprogress uwtable
define linkonce_odr hidden noundef i32 @_ZNK3euf5enode10get_th_varEi(ptr noundef nonnull align 8 dereferenceable(176) %0, i32 noundef %1) #4 comdat align 2 {
  %3 = alloca ptr, align 8
  %4 = alloca i32, align 4
  store ptr %0, ptr %3, align 8, !tbaa !56
  store i32 %1, ptr %4, align 4, !tbaa !57
  %5 = load ptr, ptr %3, align 8
  %6 = getelementptr inbounds nuw %"class.euf::enode", ptr %5, i32 0, i32 21
  %7 = load i32, ptr %4, align 4, !tbaa !57
  %8 = call noundef i32 @_ZNK11id_var_listILin1ELin1EE4findEi(ptr noundef nonnull align 8 dereferenceable(16) %6, i32 noundef %7)
  ret i32 %8
}

; Function Attrs: mustprogress nounwind uwtable
define linkonce_odr hidden noundef i32 @_ZNK3sat9extension6get_idEv(ptr noundef nonnull align 8 dereferenceable(32) %0) #6 comdat align 2 {
  %2 = alloca ptr, align 8
  store ptr %0, ptr %2, align 8, !tbaa !107
  %3 = load ptr, ptr %2, align 8
  %4 = getelementptr inbounds nuw %"class.sat::extension", ptr %3, i32 0, i32 2
  %5 = load i32, ptr %4, align 4, !tbaa !109
  ret i32 %5
}

; Function Attrs: mustprogress uwtable
define hidden noundef i32 @_ZN2bv6solver7get_varEPN3euf5enodeE(ptr noundef nonnull align 8 dereferenceable(640) %0, ptr noundef %1) #4 align 2 {
  %3 = alloca ptr, align 8
  %4 = alloca ptr, align 8
  %5 = alloca i32, align 4
  store ptr %0, ptr %3, align 8, !tbaa !3
  store ptr %1, ptr %4, align 8, !tbaa !56
  %6 = load ptr, ptr %3, align 8
  call void @llvm.lifetime.start.p0(i64 4, ptr %5) #3
  %7 = load ptr, ptr %4, align 8, !tbaa !56
  %8 = call noundef i32 @_ZNK3sat9extension6get_idEv(ptr noundef nonnull align 8 dereferenceable(32) %6)
  %9 = call noundef i32 @_ZNK3euf5enode10get_th_varEi(ptr noundef nonnull align 8 dereferenceable(176) %7, i32 noundef %8)
  store i32 %9, ptr %5, align 4, !tbaa !57
  %10 = load i32, ptr %5, align 4, !tbaa !57
  %11 = icmp eq i32 %10, -1
  br i1 %11, label %12, label %25

12:                                               ; preds = %2
  %13 = load ptr, ptr %4, align 8, !tbaa !56
  %14 = load ptr, ptr %6, align 8, !tbaa !50
  %15 = getelementptr inbounds ptr, ptr %14, i64 66
  %16 = load ptr, ptr %15, align 8
  %17 = call noundef i32 %16(ptr noundef nonnull align 8 dereferenceable(640) %6, ptr noundef %13)
  store i32 %17, ptr %5, align 4, !tbaa !57
  %18 = getelementptr inbounds nuw %"class.bv::solver", ptr %6, i32 0, i32 4
  %19 = load ptr, ptr %4, align 8, !tbaa !56
  %20 = call noundef ptr @_ZNK3euf5enode8get_exprEv(ptr noundef nonnull align 8 dereferenceable(176) %19)
  %21 = call noundef zeroext i1 @_ZNK14bv_recognizers5is_bvEPK4expr(ptr noundef nonnull align 4 dereferenceable(4) %18, ptr noundef %20)
  br i1 %21, label %22, label %24

22:                                               ; preds = %12
  %23 = load i32, ptr %5, align 4, !tbaa !57
  call void @_ZN2bv6solver7mk_bitsEi(ptr noundef nonnull align 8 dereferenceable(640) %6, i32 noundef %23)
  br label %24

24:                                               ; preds = %22, %12
  br label %25

25:                                               ; preds = %24, %2
  %26 = load i32, ptr %5, align 4, !tbaa !57
  call void @llvm.lifetime.end.p0(i64 4, ptr %5) #3
  ret i32 %26
}

; Function Attrs: mustprogress uwtable
define linkonce_odr hidden void @_ZN3euf13th_euf_solver10force_pushEv(ptr noundef nonnull align 8 dereferenceable(108) %0) #4 comdat align 2 {
  %2 = alloca ptr, align 8
  store ptr %0, ptr %2, align 8, !tbaa !88
  %3 = load ptr, ptr %2, align 8
  br label %4

4:                                                ; preds = %12, %1
  %5 = getelementptr inbounds nuw %"class.euf::th_euf_solver", ptr %3, i32 0, i32 4
  %6 = load i32, ptr %5, align 8, !tbaa !90
  %7 = icmp ugt i32 %6, 0
  br i1 %7, label %8, label %16

8:                                                ; preds = %4
  %9 = load ptr, ptr %3, align 8, !tbaa !50
  %10 = getelementptr inbounds ptr, ptr %9, i64 64
  %11 = load ptr, ptr %10, align 8
  call void %11(ptr noundef nonnull align 8 dereferenceable(108) %3)
  br label %12

12:                                               ; preds = %8
  %13 = getelementptr inbounds nuw %"class.euf::th_euf_solver", ptr %3, i32 0, i32 4
  %14 = load i32, ptr %13, align 8, !tbaa !90
  %15 = add i32 %14, -1
  store i32 %15, ptr %13, align 8, !tbaa !90
  br label %4, !llvm.loop !91

16:                                               ; preds = %4
  ret void
}

; Function Attrs: mustprogress uwtable
define hidden void @_ZN2bv6solver16apply_sort_cnstrEPN3euf5enodeEP4sort(ptr noundef nonnull align 8 dereferenceable(640) %0, ptr noundef %1, ptr noundef %2) unnamed_addr #4 align 2 {
  %4 = alloca ptr, align 8
  %5 = alloca ptr, align 8
  %6 = alloca ptr, align 8
  store ptr %0, ptr %4, align 8, !tbaa !3
  store ptr %1, ptr %5, align 8, !tbaa !56
  store ptr %2, ptr %6, align 8, !tbaa !86
  %7 = load ptr, ptr %4, align 8
  call void @_ZN3euf13th_euf_solver10force_pushEv(ptr noundef nonnull align 8 dereferenceable(108) %7)
  %8 = load ptr, ptr %5, align 8, !tbaa !56
  %9 = call noundef i32 @_ZN2bv6solver7get_varEPN3euf5enodeE(ptr noundef nonnull align 8 dereferenceable(640) %7, ptr noundef %8)
  ret void
}