; Function Attrs: mustprogress uwtable
define hidden void @_ZN2bv6solver16apply_sort_cnstrEPN3euf5enodeEP4sort(ptr noundef nonnull align 8 dereferenceable(640) %0, ptr noundef %1, ptr readnone captures(none) %2) unnamed_addr #3 align 2 {
  %4 = getelementptr inbounds nuw i8, ptr %0, i64 104
  %5 = load i32, ptr %4, align 8, !tbaa !73
  %.not1.i = icmp eq i32 %5, 0
  br i1 %.not1.i, label %_ZN3euf13th_euf_solver10force_pushEv.exit, label %.lr.ph.i

.lr.ph.i:                                         ; preds = %3, %.lr.ph.i
  %6 = load ptr, ptr %0, align 8, !tbaa !42
  %7 = getelementptr inbounds nuw i8, ptr %6, i64 512
  %8 = load ptr, ptr %7, align 8
  tail call void %8(ptr noundef nonnull align 8 dereferenceable(108) %0)
  %9 = load i32, ptr %4, align 8, !tbaa !73
  %10 = add i32 %9, -1
  store i32 %10, ptr %4, align 8, !tbaa !73
  %.not.i = icmp eq i32 %10, 0
  br i1 %.not.i, label %_ZN3euf13th_euf_solver10force_pushEv.exit, label %.lr.ph.i, !llvm.loop !74

_ZN3euf13th_euf_solver10force_pushEv.exit:        ; preds = %.lr.ph.i, %3
  %11 = getelementptr inbounds nuw i8, ptr %0, i64 12
  %12 = load i32, ptr %11, align 4, !tbaa !65
  %13 = getelementptr inbounds nuw i8, ptr %1, i64 88
  %14 = load i32, ptr %13, align 8
  %15 = icmp ugt i32 %14, -257
  br i1 %15, label %_ZNK3euf5enode10get_th_varEi.exit.thread.i, label %.preheader.i.i.i.preheader

.preheader.i.i.i.preheader:                       ; preds = %_ZN3euf13th_euf_solver10force_pushEv.exit
  %16 = shl i32 %14, 24
  %17 = ashr exact i32 %16, 24
  %18 = icmp eq i32 %12, %17
  br i1 %18, label %_ZN2bv6solver7get_varEPN3euf5enodeE.exit, label %.lr.ph

.preheader.i.i.ithread-pre-split:                 ; preds = %.lr.ph
  %.pr = load i32, ptr %23, align 8
  %19 = shl i32 %.pr, 24
  %20 = ashr exact i32 %19, 24
  %21 = icmp eq i32 %12, %20
  br i1 %21, label %.preheader.i.i.i._ZNK3euf5enode10get_th_varEi.exit.i_crit_edge, label %.lr.ph

.lr.ph:                                           ; preds = %.preheader.i.i.i.preheader, %.preheader.i.i.ithread-pre-split
  %.0.i.i.i6 = phi ptr [ %23, %.preheader.i.i.ithread-pre-split ], [ %13, %.preheader.i.i.i.preheader ]
  %22 = getelementptr inbounds nuw i8, ptr %.0.i.i.i6, i64 8
  %23 = load ptr, ptr %22, align 8, !tbaa !76
  %.not.i.i.i = icmp eq ptr %23, null
  br i1 %.not.i.i.i, label %_ZNK3euf5enode10get_th_varEi.exit.thread.i, label %.preheader.i.i.ithread-pre-split, !llvm.loop !79

.preheader.i.i.i._ZNK3euf5enode10get_th_varEi.exit.i_crit_edge: ; preds = %.preheader.i.i.ithread-pre-split
  %24 = icmp ugt i32 %.pr, -257
  br i1 %24, label %_ZNK3euf5enode10get_th_varEi.exit.thread.i, label %_ZN2bv6solver7get_varEPN3euf5enodeE.exit

_ZNK3euf5enode10get_th_varEi.exit.thread.i:       ; preds = %.lr.ph, %.preheader.i.i.i._ZNK3euf5enode10get_th_varEi.exit.i_crit_edge, %_ZN3euf13th_euf_solver10force_pushEv.exit
  %25 = load ptr, ptr %0, align 8, !tbaa !42
  %26 = getelementptr inbounds nuw i8, ptr %25, i64 528
  %27 = load ptr, ptr %26, align 8
  %28 = tail call noundef i32 %27(ptr noundef nonnull align 8 dereferenceable(640) %0, ptr noundef nonnull %1)
  %29 = getelementptr inbounds nuw i8, ptr %0, i64 128
  %30 = load ptr, ptr %1, align 8, !tbaa !80
  %31 = tail call noundef ptr @_ZNK4expr8get_sortEv(ptr noundef nonnull align 4 dereferenceable(16) %30)
  %32 = tail call noundef zeroext i1 @_ZNK14bv_recognizers10is_bv_sortEPK4sort(ptr noundef nonnull align 4 dereferenceable(4) %29, ptr noundef %31)
  br i1 %32, label %33, label %_ZN2bv6solver7get_varEPN3euf5enodeE.exit

33:                                               ; preds = %_ZNK3euf5enode10get_th_varEi.exit.thread.i
  tail call void @_ZN2bv6solver7mk_bitsEi(ptr noundef nonnull align 8 dereferenceable(640) %0, i32 noundef %28)
  br label %_ZN2bv6solver7get_varEPN3euf5enodeE.exit

_ZN2bv6solver7get_varEPN3euf5enodeE.exit:         ; preds = %.preheader.i.i.i.preheader, %.preheader.i.i.i._ZNK3euf5enode10get_th_varEi.exit.i_crit_edge, %_ZNK3euf5enode10get_th_varEi.exit.thread.i, %33
  ret void
}